target datalayout = "e-m:e-p270:32:32-p271:32:32-p272:64:64-i64:64-i128:128-f80:128-n8:16:32:64-S128"
target triple = "x86_64-pc-linux-gnu"

%struct.index_state = type { ptr, i32, i32, i32, i32, ptr, ptr, ptr, %struct.cache_time, i8, i32, %struct.hashmap, %struct.hashmap, %struct.object_id, ptr, ptr, ptr, ptr, ptr, ptr, ptr }
%struct.cache_time = type { i32, i32 }
%struct.hashmap = type { ptr, ptr, ptr, i32, i32, i32, i32, i8 }
%struct.object_id = type { [32 x i8], i32 }
%struct.cache_entry = type { %struct.hashmap_entry, %struct.stat_data, i32, i32, i32, i32, i32, %struct.object_id, [0 x i8] }
%struct.hashmap_entry = type { ptr, i32 }
%struct.stat_data = type { %struct.cache_time, %struct.cache_time, i32, i32, i32, i32, i32 }

; Function Attrs: nounwind uwtable
define internal i32 @cache_name_stage_compare(ptr noundef %0, i32 noundef %1, i32 noundef %2, ptr noundef %3, i32 noundef %4, i32 noundef %5) #0 {
  %7 = alloca i32, align 4
  %8 = alloca ptr, align 8
  %9 = alloca i32, align 4
  %10 = alloca i32, align 4
  %11 = alloca ptr, align 8
  %12 = alloca i32, align 4
  %13 = alloca i32, align 4
  %14 = alloca i32, align 4
  %15 = alloca i32, align 4
  store ptr %0, ptr %8, align 8, !tbaa !11
  store i32 %1, ptr %9, align 4, !tbaa !9
  store i32 %2, ptr %10, align 4, !tbaa !9
  store ptr %3, ptr %11, align 8, !tbaa !11
  store i32 %4, ptr %12, align 4, !tbaa !9
  store i32 %5, ptr %13, align 4, !tbaa !9
  call void @llvm.lifetime.start.p0(i64 4, ptr %14) #12
  %16 = load ptr, ptr %8, align 8, !tbaa !11
  %17 = load i32, ptr %9, align 4, !tbaa !9
  %18 = sext i32 %17 to i64
  %19 = load ptr, ptr %11, align 8, !tbaa !11
  %20 = load i32, ptr %12, align 4, !tbaa !9
  %21 = sext i32 %20 to i64
  %22 = call i32 @name_compare(ptr noundef %16, i64 noundef %18, ptr noundef %19, i64 noundef %21)
  store i32 %22, ptr %14, align 4, !tbaa !9
  %23 = load i32, ptr %14, align 4, !tbaa !9
  %24 = icmp ne i32 %23, 0
  br i1 %24, label %25, label %27

25:                                               ; preds = %6
  %26 = load i32, ptr %14, align 4, !tbaa !9
  store i32 %26, ptr %7, align 4
  store i32 1, ptr %15, align 4
  br label %38

27:                                               ; preds = %6
  %28 = load i32, ptr %10, align 4, !tbaa !9
  %29 = load i32, ptr %13, align 4, !tbaa !9
  %30 = icmp slt i32 %28, %29
  br i1 %30, label %31, label %32

31:                                               ; preds = %27
  store i32 -1, ptr %7, align 4
  store i32 1, ptr %15, align 4
  br label %38

32:                                               ; preds = %27
  %33 = load i32, ptr %10, align 4, !tbaa !9
  %34 = load i32, ptr %13, align 4, !tbaa !9
  %35 = icmp sgt i32 %33, %34
  br i1 %35, label %36, label %37

36:                                               ; preds = %32
  store i32 1, ptr %7, align 4
  store i32 1, ptr %15, align 4
  br label %38

37:                                               ; preds = %32
  store i32 0, ptr %7, align 4
  store i32 1, ptr %15, align 4
  br label %38

38:                                               ; preds = %37, %36, %31, %25
  call void @llvm.lifetime.end.p0(i64 4, ptr %14) #12
  %39 = load i32, ptr %7, align 4
  ret i32 %39
}

; Function Attrs: nounwind uwtable
define internal i32 @index_name_stage_pos(ptr noundef %0, ptr noundef %1, i32 noundef %2, i32 noundef %3, i32 noundef %4) #0 {
  %6 = alloca i32, align 4
  %7 = alloca ptr, align 8
  %8 = alloca ptr, align 8
  %9 = alloca i32, align 4
  %10 = alloca i32, align 4
  %11 = alloca i32, align 4
  %12 = alloca i32, align 4
  %13 = alloca i32, align 4
  %14 = alloca i32, align 4
  %15 = alloca ptr, align 8
  %16 = alloca i32, align 4
  %17 = alloca i32, align 4
  %18 = alloca ptr, align 8
  store ptr %0, ptr %7, align 8, !tbaa !4
  store ptr %1, ptr %8, align 8, !tbaa !11
  store i32 %2, ptr %9, align 4, !tbaa !9
  store i32 %3, ptr %10, align 4, !tbaa !9
  store i32 %4, ptr %11, align 4, !tbaa !9
  call void @llvm.lifetime.start.p0(i64 4, ptr %12) #12
  call void @llvm.lifetime.start.p0(i64 4, ptr %13) #12
  store i32 0, ptr %12, align 4, !tbaa !9
  %19 = load ptr, ptr %7, align 8, !tbaa !4
  %20 = getelementptr inbounds nuw %struct.index_state, ptr %19, i32 0, i32 2
  %21 = load i32, ptr %20, align 4, !tbaa !34
  store i32 %21, ptr %13, align 4, !tbaa !9
  br label %22

22:                                               ; preds = %69, %67, %5
  %23 = load i32, ptr %13, align 4, !tbaa !9
  %24 = load i32, ptr %12, align 4, !tbaa !9
  %25 = icmp sgt i32 %23, %24
  br i1 %25, label %26, label %70

26:                                               ; preds = %22
  call void @llvm.lifetime.start.p0(i64 4, ptr %14) #12
  %27 = load i32, ptr %12, align 4, !tbaa !9
  %28 = load i32, ptr %13, align 4, !tbaa !9
  %29 = load i32, ptr %12, align 4, !tbaa !9
  %30 = sub nsw i32 %28, %29
  %31 = ashr i32 %30, 1
  %32 = add nsw i32 %27, %31
  store i32 %32, ptr %14, align 4, !tbaa !9
  call void @llvm.lifetime.start.p0(i64 8, ptr %15) #12
  %33 = load ptr, ptr %7, align 8, !tbaa !4
  %34 = getelementptr inbounds nuw %struct.index_state, ptr %33, i32 0, i32 0
  %35 = load ptr, ptr %34, align 8, !tbaa !13
  %36 = load i32, ptr %14, align 4, !tbaa !9
  %37 = sext i32 %36 to i64
  %38 = getelementptr inbounds ptr, ptr %35, i64 %37
  %39 = load ptr, ptr %38, align 8, !tbaa !29
  store ptr %39, ptr %15, align 8, !tbaa !29
  call void @llvm.lifetime.start.p0(i64 4, ptr %16) #12
  %40 = load ptr, ptr %8, align 8, !tbaa !11
  %41 = load i32, ptr %9, align 4, !tbaa !9
  %42 = load i32, ptr %10, align 4, !tbaa !9
  %43 = load ptr, ptr %15, align 8, !tbaa !29
  %44 = getelementptr inbounds nuw %struct.cache_entry, ptr %43, i32 0, i32 8
  %45 = getelementptr inbounds [0 x i8], ptr %44, i64 0, i64 0
  %46 = load ptr, ptr %15, align 8, !tbaa !29
  %47 = getelementptr inbounds nuw %struct.cache_entry, ptr %46, i32 0, i32 5
  %48 = load i32, ptr %47, align 8, !tbaa !9
  %49 = load ptr, ptr %15, align 8, !tbaa !29
  %50 = getelementptr inbounds nuw %struct.cache_entry, ptr %49, i32 0, i32 3
  %51 = load i32, ptr %50, align 8, !tbaa !9
  %52 = and i32 12288, %51
  %53 = lshr i32 %52, 12
  %54 = call i32 @cache_name_stage_compare(ptr noundef %40, i32 noundef %41, i32 noundef %42, ptr noundef %45, i32 noundef %48, i32 noundef %53)
  store i32 %54, ptr %16, align 4, !tbaa !9
  %55 = load i32, ptr %16, align 4, !tbaa !9
  %56 = icmp ne i32 %55, 0
  br i1 %56, label %59, label %57

57:                                               ; preds = %26
  %58 = load i32, ptr %14, align 4, !tbaa !9
  store i32 %58, ptr %6, align 4
  store i32 1, ptr %17, align 4
  br label %67

59:                                               ; preds = %26
  %60 = load i32, ptr %16, align 4, !tbaa !9
  %61 = icmp slt i32 %60, 0
  br i1 %61, label %62, label %64

62:                                               ; preds = %59
  %63 = load i32, ptr %14, align 4, !tbaa !9
  store i32 %63, ptr %13, align 4, !tbaa !9
  store i32 2, ptr %17, align 4
  br label %67, !llvm.loop !65

64:                                               ; preds = %59
  %65 = load i32, ptr %14, align 4, !tbaa !9
  %66 = add nsw i32 %65, 1
  store i32 %66, ptr %12, align 4, !tbaa !9
  store i32 0, ptr %17, align 4
  br label %67

67:                                               ; preds = %64, %62, %57
  call void @llvm.lifetime.end.p0(i64 4, ptr %16) #12
  call void @llvm.lifetime.end.p0(i64 8, ptr %15) #12
  call void @llvm.lifetime.end.p0(i64 4, ptr %14) #12
  %68 = load i32, ptr %17, align 4
  switch i32 %68, label %127 [
    i32 0, label %69
    i32 2, label %22
  ]

69:                                               ; preds = %67
  br label %22, !llvm.loop !65

70:                                               ; preds = %22
  %71 = load i32, ptr %11, align 4, !tbaa !9
  %72 = icmp eq i32 %71, 1
  br i1 %72, label %73, label %123

73:                                               ; preds = %70
  %74 = load ptr, ptr %7, align 8, !tbaa !4
  %75 = getelementptr inbounds nuw %struct.index_state, ptr %74, i32 0, i32 10
  %76 = load i32, ptr %75, align 4, !tbaa !67
  %77 = icmp ne i32 %76, 0
  br i1 %77, label %78, label %123

78:                                               ; preds = %73
  %79 = load i32, ptr %12, align 4, !tbaa !9
  %80 = icmp sgt i32 %79, 0
  br i1 %80, label %81, label %123

81:                                               ; preds = %78
  call void @llvm.lifetime.start.p0(i64 8, ptr %18) #12
  %82 = load ptr, ptr %7, align 8, !tbaa !4
  %83 = getelementptr inbounds nuw %struct.index_state, ptr %82, i32 0, i32 0
  %84 = load ptr, ptr %83, align 8, !tbaa !13
  %85 = load i32, ptr %12, align 4, !tbaa !9
  %86 = sub nsw i32 %85, 1
  %87 = sext i32 %86 to i64
  %88 = getelementptr inbounds ptr, ptr %84, i64 %87
  %89 = load ptr, ptr %88, align 8, !tbaa !29
  store ptr %89, ptr %18, align 8, !tbaa !29
  %90 = load ptr, ptr %18, align 8, !tbaa !29
  %91 = getelementptr inbounds nuw %struct.cache_entry, ptr %90, i32 0, i32 2
  %92 = load i32, ptr %91, align 4, !tbaa !9
  %93 = icmp eq i32 %92, 16384
  br i1 %93, label %94, label %119

94:                                               ; preds = %81
  %95 = load ptr, ptr %18, align 8, !tbaa !29
  %96 = getelementptr inbounds nuw %struct.cache_entry, ptr %95, i32 0, i32 5
  %97 = load i32, ptr %96, align 8, !tbaa !9
  %98 = load i32, ptr %9, align 4, !tbaa !9
  %99 = icmp ult i32 %97, %98
  br i1 %99, label %100, label %119

100:                                              ; preds = %94
  %101 = load ptr, ptr %8, align 8, !tbaa !11
  %102 = load ptr, ptr %18, align 8, !tbaa !29
  %103 = getelementptr inbounds nuw %struct.cache_entry, ptr %102, i32 0, i32 8
  %104 = getelementptr inbounds [0 x i8], ptr %103, i64 0, i64 0
  %105 = load ptr, ptr %18, align 8, !tbaa !29
  %106 = getelementptr inbounds nuw %struct.cache_entry, ptr %105, i32 0, i32 5
  %107 = load i32, ptr %106, align 8, !tbaa !9
  %108 = zext i32 %107 to i64
  %109 = call i32 @strncmp(ptr noundef %101, ptr noundef %104, i64 noundef %108) #13
  %110 = icmp ne i32 %109, 0
  br i1 %110, label %119, label %111

111:                                              ; preds = %100
  %112 = load ptr, ptr %7, align 8, !tbaa !4
  call void @ensure_full_index(ptr noundef %112)
  %113 = load ptr, ptr %7, align 8, !tbaa !4
  %114 = load ptr, ptr %8, align 8, !tbaa !11
  %115 = load i32, ptr %9, align 4, !tbaa !9
  %116 = load i32, ptr %10, align 4, !tbaa !9
  %117 = load i32, ptr %11, align 4, !tbaa !9
  %118 = call i32 @index_name_stage_pos(ptr noundef %113, ptr noundef %114, i32 noundef %115, i32 noundef %116, i32 noundef %117)
  store i32 %118, ptr %6, align 4
  store i32 1, ptr %17, align 4
  br label %120

119:                                              ; preds = %100, %94, %81
  store i32 0, ptr %17, align 4
  br label %120

120:                                              ; preds = %119, %111
  call void @llvm.lifetime.end.p0(i64 8, ptr %18) #12
  %121 = load i32, ptr %17, align 4
  switch i32 %121, label %127 [
    i32 0, label %122
  ]

122:                                              ; preds = %120
  br label %123

123:                                              ; preds = %122, %78, %73, %70
  %124 = load i32, ptr %12, align 4, !tbaa !9
  %125 = sub nsw i32 0, %124
  %126 = sub nsw i32 %125, 1
  store i32 %126, ptr %6, align 4
  store i32 1, ptr %17, align 4
  br label %127

127:                                              ; preds = %123, %120, %67
  call void @llvm.lifetime.end.p0(i64 4, ptr %13) #12
  call void @llvm.lifetime.end.p0(i64 4, ptr %12) #12
  %128 = load i32, ptr %6, align 4
  ret i32 %128
}