; Function Attrs: nounwind uwtable
define internal fastcc i32 @index_name_stage_pos(ptr noundef %0, ptr noundef %1, i32 noundef %2, i32 noundef range(i32 0, 4) %3, i32 noundef range(i32 0, 2) %4) unnamed_addr #0 {
  %6 = getelementptr inbounds nuw i8, ptr %0, i64 12
  %7 = sext i32 %2 to i64
  %8 = getelementptr inbounds nuw i8, ptr %0, i64 60
  %9 = icmp eq i32 %4, 0
  br label %tailrecurse

tailrecurse:                                      ; preds = %55, %5
  %.tr70 = phi i1 [ %9, %5 ], [ false, %55 ]
  %10 = load i32, ptr %6, align 4, !tbaa !34
  %11 = icmp sgt i32 %10, 0
  br i1 %11, label %.lr.ph, label %._crit_edge

.lr.ph:                                           ; preds = %tailrecurse, %.thread56
  %.04273 = phi i32 [ %.143, %.thread56 ], [ 0, %tailrecurse ]
  %.04472 = phi i32 [ %.145, %.thread56 ], [ %10, %tailrecurse ]
  %12 = sub nsw i32 %.04472, %.04273
  %13 = ashr i32 %12, 1
  %14 = add nsw i32 %13, %.04273
  %15 = load ptr, ptr %0, align 8, !tbaa !4
  %16 = sext i32 %14 to i64
  %17 = getelementptr inbounds ptr, ptr %15, i64 %16
  %18 = load ptr, ptr %17, align 8, !tbaa !25
  %19 = getelementptr inbounds nuw i8, ptr %18, i64 108
  %20 = getelementptr inbounds nuw i8, ptr %18, i64 64
  %21 = load i32, ptr %20, align 8, !tbaa !32
  %22 = getelementptr inbounds nuw i8, ptr %18, i64 56
  %23 = load i32, ptr %22, align 8, !tbaa !32
  %24 = lshr i32 %23, 12
  %25 = and i32 %24, 3
  %26 = sext i32 %21 to i64
  %27 = tail call i32 @name_compare(ptr noundef %1, i64 noundef %7, ptr noundef nonnull %19, i64 noundef %26) #30
  %.not.i = icmp eq i32 %27, 0
  br i1 %.not.i, label %28, label %30

28:                                               ; preds = %.lr.ph
  %29 = icmp samesign ult i32 %3, %25
  br i1 %29, label %.thread56, label %cache_name_stage_compare.exit

cache_name_stage_compare.exit:                    ; preds = %28
  %.not66 = icmp samesign ugt i32 %3, %25
  br i1 %.not66, label %.thread, label %.thread58

30:                                               ; preds = %.lr.ph
  %31 = icmp slt i32 %27, 0
  br i1 %31, label %.thread56, label %.thread, !llvm.loop !76

.thread:                                          ; preds = %cache_name_stage_compare.exit, %30
  %32 = add nsw i32 %14, 1
  br label %.thread56

.thread56:                                        ; preds = %28, %30, %.thread
  %.145 = phi i32 [ %.04472, %.thread ], [ %14, %30 ], [ %14, %28 ]
  %.143 = phi i32 [ %32, %.thread ], [ %.04273, %30 ], [ %.04273, %28 ]
  %33 = icmp sgt i32 %.145, %.143
  br i1 %33, label %.lr.ph, label %._crit_edge

._crit_edge:                                      ; preds = %.thread56, %tailrecurse
  %.042.lcssa = phi i32 [ 0, %tailrecurse ], [ %.143, %.thread56 ]
  br i1 %.tr70, label %.thread63, label %34

34:                                               ; preds = %._crit_edge
  %35 = load i32, ptr %8, align 4, !tbaa !41
  %36 = icmp ne i32 %35, 0
  %37 = icmp sgt i32 %.042.lcssa, 0
  %or.cond = and i1 %37, %36
  br i1 %or.cond, label %38, label %.thread63

38:                                               ; preds = %34
  %39 = load ptr, ptr %0, align 8, !tbaa !4
  %40 = zext nneg i32 %.042.lcssa to i64
  %41 = getelementptr ptr, ptr %39, i64 %40
  %42 = getelementptr i8, ptr %41, i64 -8
  %43 = load ptr, ptr %42, align 8, !tbaa !25
  %44 = getelementptr inbounds nuw i8, ptr %43, i64 52
  %45 = load i32, ptr %44, align 4, !tbaa !32
  %46 = icmp eq i32 %45, 16384
  br i1 %46, label %47, label %.thread63

47:                                               ; preds = %38
  %48 = getelementptr inbounds nuw i8, ptr %43, i64 64
  %49 = load i32, ptr %48, align 8, !tbaa !32
  %50 = icmp ult i32 %49, %2
  br i1 %50, label %51, label %.thread63

51:                                               ; preds = %47
  %52 = getelementptr inbounds nuw i8, ptr %43, i64 108
  %53 = zext i32 %49 to i64
  %54 = tail call i32 @strncmp(ptr noundef %1, ptr noundef nonnull %52, i64 noundef %53) #29
  %.not50 = icmp eq i32 %54, 0
  br i1 %.not50, label %55, label %.thread63

55:                                               ; preds = %51
  tail call void @ensure_full_index(ptr noundef nonnull %0) #30
  br label %tailrecurse

.thread63:                                        ; preds = %38, %47, %51, %34, %._crit_edge
  %56 = xor i32 %.042.lcssa, -1
  br label %.thread58

.thread58:                                        ; preds = %cache_name_stage_compare.exit, %.thread63
  %.2 = phi i32 [ %56, %.thread63 ], [ %14, %cache_name_stage_compare.exit ]
  ret i32 %.2
}